target datalayout = "e-m:e-p270:32:32-p271:32:32-p272:64:64-i64:64-i128:128-f80:128-n8:16:32:64-S128"
target triple = "x86_64-pc-linux-gnu"

@.str = private unnamed_addr constant [32 x i8] c"../openssl/crypto/cmp/cmp_msg.c\00", align 1
@__func__.ossl_cmp_pkiconf_new = private unnamed_addr constant [21 x i8] c"ossl_cmp_pkiconf_new\00", align 1

; Function Attrs: nounwind uwtable
define void @OSSL_CMP_MSG_free(ptr noundef %0) #0 {
  %2 = alloca ptr, align 8
  store ptr %0, ptr %2, align 8, !tbaa !10
  %3 = load ptr, ptr %2, align 8, !tbaa !10
  %4 = call ptr @OSSL_CMP_MSG_it()
  call void @ASN1_item_free(ptr noundef %3, ptr noundef %4)
  ret void
}

; Function Attrs: nounwind uwtable
define ptr @ossl_cmp_pkiconf_new(ptr noundef %0) #0 {
  %2 = alloca ptr, align 8
  %3 = alloca ptr, align 8
  %4 = alloca ptr, align 8
  %5 = alloca i32, align 4
  store ptr %0, ptr %3, align 8, !tbaa !34
  call void @llvm.lifetime.start.p0(i64 8, ptr %4) #6
  %6 = load ptr, ptr %3, align 8, !tbaa !34
  %7 = icmp ne ptr %6, null
  %8 = zext i1 %7 to i32
  %9 = icmp ne i32 %8, 0
  %10 = xor i1 %9, true
  %11 = xor i1 %10, true
  %12 = zext i1 %11 to i32
  %13 = sext i32 %12 to i64
  %14 = call i64 @llvm.expect.i64(i64 %13, i64 1)
  %15 = icmp ne i64 %14, 0
  br i1 %15, label %17, label %16

16:                                               ; preds = %1
  store ptr null, ptr %2, align 8
  store i32 1, ptr %5, align 4
  br label %32

17:                                               ; preds = %1
  %18 = load ptr, ptr %3, align 8, !tbaa !34
  %19 = call ptr @ossl_cmp_msg_create(ptr noundef %18, i32 noundef 19)
  store ptr %19, ptr %4, align 8, !tbaa !10
  %20 = icmp eq ptr %19, null
  br i1 %20, label %21, label %22

21:                                               ; preds = %17
  br label %30

22:                                               ; preds = %17
  %23 = load ptr, ptr %3, align 8, !tbaa !34
  %24 = load ptr, ptr %4, align 8, !tbaa !10
  %25 = call i32 @ossl_cmp_msg_protect(ptr noundef %23, ptr noundef %24)
  %26 = icmp ne i32 %25, 0
  br i1 %26, label %27, label %29

27:                                               ; preds = %22
  %28 = load ptr, ptr %4, align 8, !tbaa !10
  store ptr %28, ptr %2, align 8
  store i32 1, ptr %5, align 4
  br label %32

29:                                               ; preds = %22
  br label %30

30:                                               ; preds = %29, %21
  call void @ERR_new()
  call void @ERR_set_debug(ptr noundef @.str, i32 noundef 699, ptr noundef @__func__.ossl_cmp_pkiconf_new)
  call void (i32, i32, ptr, ...) @ERR_set_error(i32 noundef 58, i32 noundef 122, ptr noundef null)
  %31 = load ptr, ptr %4, align 8, !tbaa !10
  call void @OSSL_CMP_MSG_free(ptr noundef %31)
  store ptr null, ptr %2, align 8
  store i32 1, ptr %5, align 4
  br label %32

32:                                               ; preds = %30, %27, %16
  call void @llvm.lifetime.end.p0(i64 8, ptr %4) #6
  %33 = load ptr, ptr %2, align 8
  ret ptr %33
}