; Function Attrs: nounwind uwtable
define ptr @ossl_cmp_pkiconf_new(ptr noundef %0) local_unnamed_addr #0 {
  %.not = icmp eq ptr %0, null
  br i1 %.not, label %9, label %2, !prof !18

2:                                                ; preds = %1
  %3 = tail call ptr @ossl_cmp_msg_create(ptr noundef nonnull %0, i32 noundef 19)
  %4 = icmp eq ptr %3, null
  br i1 %4, label %7, label %5

5:                                                ; preds = %2
  %6 = tail call i32 @ossl_cmp_msg_protect(ptr noundef nonnull %0, ptr noundef nonnull %3) #7
  %.not9 = icmp eq i32 %6, 0
  br i1 %.not9, label %7, label %9

7:                                                ; preds = %5, %2
  tail call void @ERR_new() #7
  tail call void @ERR_set_debug(ptr noundef nonnull @.str, i32 noundef 699, ptr noundef nonnull @__func__.ossl_cmp_pkiconf_new) #7
  tail call void (i32, i32, ptr, ...) @ERR_set_error(i32 noundef 58, i32 noundef 122, ptr noundef null) #7
  %8 = tail call ptr @OSSL_CMP_MSG_it() #7
  tail call void @ASN1_item_free(ptr noundef %3, ptr noundef %8) #7
  br label %9

9:                                                ; preds = %5, %1, %7
  %.0 = phi ptr [ null, %7 ], [ null, %1 ], [ %3, %5 ]
  ret ptr %.0
}